; Function Attrs: mustprogress nofree norecurse nosync nounwind memory(read, argmem: readwrite, inaccessiblemem: none) uwtable
define dso_local void @_ZNK4Json6Reader24getLocationLineAndColumnEPKcRiS3_(ptr nocapture noundef nonnull readonly align 8 dereferenceable(269) %0, ptr noundef %1, ptr nocapture noundef nonnull align 4 dereferenceable(4) %2, ptr nocapture noundef nonnull writeonly align 4 dereferenceable(4) %3) local_unnamed_addr #10 align 2 {
  %5 = getelementptr inbounds i8, ptr %0, i64 192
  %6 = load ptr, ptr %5, align 8
  store i32 0, ptr %2, align 4
  %7 = getelementptr inbounds i8, ptr %0, i64 200
  %8 = icmp uge ptr %6, %1
  %9 = load ptr, ptr %7, align 8
  %.not22 = icmp eq ptr %6, %9
  %or.cond23 = select i1 %8, i1 true, i1 %.not22
  br i1 %or.cond23, label %.critedge, label %.lr.ph

.lr.ph:                                           ; preds = %4, %18
  %10 = phi i32 [ %19, %18 ], [ 0, %4 ]
  %.025 = phi ptr [ %.2, %18 ], [ %6, %4 ]
  %.01824 = phi ptr [ %.119, %18 ], [ %6, %4 ]
  %11 = getelementptr inbounds i8, ptr %.025, i64 1
  %12 = load i8, ptr %.025, align 1
  switch i8 %12, label %18 [
    i8 13, label %13
    i8 10, label %.sink.split
  ]

13:                                               ; preds = %.lr.ph
  %14 = load i8, ptr %11, align 1
  %15 = icmp eq i8 %14, 10
  %16 = getelementptr inbounds i8, ptr %.025, i64 2
  %spec.select = select i1 %15, ptr %16, ptr %11
  br label %.sink.split

.sink.split:                                      ; preds = %.lr.ph, %13
  %.119.ph = phi ptr [ %spec.select, %13 ], [ %11, %.lr.ph ]
  %17 = add nsw i32 %10, 1
  store i32 %17, ptr %2, align 4
  br label %18

18:                                               ; preds = %.sink.split, %.lr.ph
  %19 = phi i32 [ %10, %.lr.ph ], [ %17, %.sink.split ]
  %.119 = phi ptr [ %.01824, %.lr.ph ], [ %.119.ph, %.sink.split ]
  %.2 = phi ptr [ %11, %.lr.ph ], [ %.119.ph, %.sink.split ]
  %20 = icmp uge ptr %.2, %1
  %21 = load ptr, ptr %7, align 8
  %.not = icmp eq ptr %.2, %21
  %or.cond = select i1 %20, i1 true, i1 %.not
  br i1 %or.cond, label %.critedge, label %.lr.ph, !llvm.loop !144

.critedge:                                        ; preds = %18, %4
  %.018.lcssa = phi ptr [ %6, %4 ], [ %.119, %18 ]
  %22 = ptrtoint ptr %1 to i64
  %23 = ptrtoint ptr %.018.lcssa to i64
  %24 = sub i64 %22, %23
  %25 = trunc i64 %24 to i32
  %26 = add nsw i32 %25, 1
  store i32 %26, ptr %3, align 4
  %27 = load i32, ptr %2, align 4
  %28 = add nsw i32 %27, 1
  store i32 %28, ptr %2, align 4
  ret void
}